; Function Attrs: mustprogress uwtable
define dso_local void @_ZN23btDiscreteDynamicsWorld25releasePredictiveContactsEv(ptr nocapture noundef nonnull align 8 dereferenceable(508) %this) local_unnamed_addr #0 align 2 personality ptr @__gxx_personality_v0 {
entry:
  %__profile = alloca %class.CProfileSample, align 1
  call void @_ZN14CProfileSampleC1EPKc(ptr noundef nonnull align 1 dereferenceable(1) %__profile, ptr noundef nonnull @.str.7)
  %m_size.i = getelementptr inbounds i8, ptr %this, i64 476
  %0 = load i32, ptr %m_size.i, align 4
  %cmp6 = icmp sgt i32 %0, 0
  br i1 %cmp6, label %for.body.lr.ph, label %for.end

for.body.lr.ph:                                   ; preds = %entry
  %m_data.i = getelementptr inbounds i8, ptr %this, i64 488
  %m_dispatcher1 = getelementptr inbounds i8, ptr %this, i64 40
  br label %for.body

for.body:                                         ; preds = %for.body.lr.ph, %for.inc
  %indvars.iv = phi i64 [ 0, %for.body.lr.ph ], [ %indvars.iv.next, %for.inc ]
  %1 = load ptr, ptr %m_data.i, align 8
  %arrayidx.i = getelementptr inbounds ptr, ptr %1, i64 %indvars.iv
  %2 = load ptr, ptr %arrayidx.i, align 8
  %3 = load ptr, ptr %m_dispatcher1, align 8
  %vtable = load ptr, ptr %3, align 8
  %vfn = getelementptr inbounds i8, ptr %vtable, i64 32
  %4 = load ptr, ptr %vfn, align 8
  invoke void %4(ptr noundef nonnull align 8 dereferenceable(8) %3, ptr noundef %2)
          to label %for.inc unwind label %lpad.loopexit

for.inc:                                          ; preds = %for.body
  %indvars.iv.next = add nuw nsw i64 %indvars.iv, 1
  %5 = load i32, ptr %m_size.i, align 4
  %6 = sext i32 %5 to i64
  %cmp = icmp slt i64 %indvars.iv.next, %6
  br i1 %cmp, label %for.body, label %for.end, !llvm.loop !38

lpad.loopexit:                                    ; preds = %for.body
  %lpad.loopexit3 = landingpad { ptr, i32 }
          cleanup
  br label %lpad

lpad.loopexit.split-lp:                           ; preds = %if.then3.i.i
  %lpad.loopexit.split-lp4 = landingpad { ptr, i32 }
          cleanup
  br label %lpad

lpad:                                             ; preds = %lpad.loopexit.split-lp, %lpad.loopexit
  %lpad.phi = phi { ptr, i32 } [ %lpad.loopexit3, %lpad.loopexit ], [ %lpad.loopexit.split-lp4, %lpad.loopexit.split-lp ]
  call void @_ZN14CProfileSampleD1Ev(ptr noundef nonnull align 1 dereferenceable(1) %__profile) #18
  resume { ptr, i32 } %lpad.phi

for.end:                                          ; preds = %for.inc, %entry
  %m_data.i.i = getelementptr inbounds i8, ptr %this, i64 488
  %7 = load ptr, ptr %m_data.i.i, align 8
  %tobool.not.i.i = icmp eq ptr %7, null
  br i1 %tobool.not.i.i, label %invoke.cont7, label %if.then.i.i

if.then.i.i:                                      ; preds = %for.end
  %m_ownsMemory.i.i = getelementptr inbounds i8, ptr %this, i64 496
  %8 = load i8, ptr %m_ownsMemory.i.i, align 8
  %9 = and i8 %8, 1
  %tobool2.not.i.i = icmp eq i8 %9, 0
  br i1 %tobool2.not.i.i, label %invoke.cont7, label %if.then3.i.i

if.then3.i.i:                                     ; preds = %if.then.i.i
  invoke void @_Z21btAlignedFreeInternalPv(ptr noundef nonnull %7)
          to label %invoke.cont7 unwind label %lpad.loopexit.split-lp

invoke.cont7:                                     ; preds = %if.then.i.i, %for.end, %if.then3.i.i
  %m_ownsMemory.i1.i = getelementptr inbounds i8, ptr %this, i64 496
  store i8 1, ptr %m_ownsMemory.i1.i, align 8
  store ptr null, ptr %m_data.i.i, align 8
  store i32 0, ptr %m_size.i, align 4
  %m_capacity.i.i = getelementptr inbounds i8, ptr %this, i64 480
  store i32 0, ptr %m_capacity.i.i, align 8
  call void @_ZN14CProfileSampleD1Ev(ptr noundef nonnull align 1 dereferenceable(1) %__profile) #18
  ret void
}